target datalayout = "e-m:e-p270:32:32-p271:32:32-p272:64:64-i64:64-i128:128-f80:128-n8:16:32:64-S128"
target triple = "x86_64-pc-linux-gnu"

%struct._header_field_info = type { ptr, ptr, i32, i32, ptr, i64, ptr, i32, i32, i32, i32, ptr }
%struct._pci_t = type { ptr, i32 }
%struct._GString = type { ptr, i64, i64 }
%struct._packet_info = type { ptr, ptr, i32, i32, %struct.nstime_t, %struct.nstime_t, %struct.nstime_t, i8, ptr, ptr, ptr, ptr, %struct._address, %struct._address, %struct._address, %struct._address, %struct._address, %struct._address, i32, ptr, i8, [3 x i8], %struct.anon, i32, i32, i32, i32, ptr, i8, ptr, ptr, i16, i16, i32, i32, i16, i32, i32, ptr, ptr, ptr, i8, i8, i16, i16, i16, i32, i16, i16, ptr, ptr, ptr, ptr, ptr, i32, i32 }
%struct.nstime_t = type { i64, i32 }
%struct._address = type { i32, i32, ptr, ptr }
%struct.anon = type { i8, [3 x i8] }
%struct.epan_dissect = type { ptr, ptr, ptr, %struct._packet_info }
%struct._GPtrArray = type { ptr, i32 }

@.str = private unnamed_addr constant [14 x i8] c"proto,colinfo\00", align 1
@protocolinfo_ui = internal global { i32, [4 x i8], ptr, ptr, ptr, i64, ptr } { i32 3, [4 x i8] zeroinitializer, ptr null, ptr @.str, ptr @protocolinfo_init, i64 0, ptr null }, align 8
@.str.2 = private unnamed_addr constant [15 x i8] c"proto,colinfo,\00", align 1
@.str.3 = private unnamed_addr constant [53 x i8] c"invalid \22-z proto,colinfo,<filter>,<field>\22 argument\00", align 1
@.str.4 = private unnamed_addr constant [26 x i8] c"Field \22%s\22 doesn't exist.\00", align 1
@.str.5 = private unnamed_addr constant [6 x i8] c"frame\00", align 1
@.str.6 = private unnamed_addr constant [40 x i8] c"Couldn't register proto,colinfo tap: %s\00", align 1
@.str.7 = private unnamed_addr constant [75 x i8] c"the proto,colinfo tap doesn't work if the INFO column isn't being printed.\00", align 1
@.str.8 = private unnamed_addr constant [5 x i8] c"  %s\00", align 1

; Function Attrs: null_pointer_is_valid sspstrong uwtable
define hidden void @register_tap_listener_protocolinfo() #0 {
  call void @register_stat_tap_ui(ptr noundef @protocolinfo_ui, ptr noundef null)
  ret void
}

; Function Attrs: null_pointer_is_valid
declare void @register_stat_tap_ui(ptr noundef, ptr noundef) #1

; Function Attrs: null_pointer_is_valid sspstrong uwtable
define internal void @protocolinfo_init(ptr noundef %0, ptr noundef %1) #0 {
  %3 = alloca ptr, align 8
  %4 = alloca ptr, align 8
  %5 = alloca ptr, align 8
  %6 = alloca ptr, align 8
  %7 = alloca ptr, align 8
  %8 = alloca ptr, align 8
  %9 = alloca ptr, align 8
  %10 = alloca i64, align 8
  %11 = alloca i64, align 8
  %12 = alloca ptr, align 8
  %13 = alloca ptr, align 8
  store ptr %0, ptr %3, align 8
  store ptr %1, ptr %4, align 8
  call void @llvm.lifetime.start.p0(i64 8, ptr %5) #8
  call void @llvm.lifetime.start.p0(i64 8, ptr %6) #8
  store ptr null, ptr %6, align 8
  call void @llvm.lifetime.start.p0(i64 8, ptr %7) #8
  store ptr null, ptr %7, align 8
  call void @llvm.lifetime.start.p0(i64 8, ptr %8) #8
  call void @llvm.lifetime.start.p0(i64 8, ptr %9) #8
  %14 = load ptr, ptr %3, align 8
  %15 = call i32 @strncmp(ptr noundef @.str.2, ptr noundef %14, i64 noundef 14) #9
  %16 = icmp ne i32 %15, 0
  br i1 %16, label %28, label %17

17:                                               ; preds = %2
  %18 = load ptr, ptr %3, align 8
  %19 = getelementptr i8, ptr %18, i64 14
  store ptr %19, ptr %7, align 8
  %20 = load ptr, ptr %7, align 8
  %21 = call ptr @strchr(ptr noundef %20, i32 noundef 44) #9
  store ptr %21, ptr %6, align 8
  %22 = load ptr, ptr %6, align 8
  %23 = icmp ne ptr %22, null
  br i1 %23, label %24, label %27

24:                                               ; preds = %17
  %25 = load ptr, ptr %6, align 8
  %26 = getelementptr i8, ptr %25, i64 1
  store ptr %26, ptr %6, align 8
  br label %27

27:                                               ; preds = %24, %17
  br label %28

28:                                               ; preds = %27, %2
  %29 = load ptr, ptr %6, align 8
  %30 = icmp ne ptr %29, null
  br i1 %30, label %32, label %31

31:                                               ; preds = %28
  call void (ptr, ...) @cmdarg_err(ptr noundef @.str.3)
  call void @exit(i32 noundef 1) #10
  unreachable

32:                                               ; preds = %28
  %33 = load ptr, ptr %6, align 8
  %34 = call ptr @proto_registrar_get_byname(ptr noundef %33)
  store ptr %34, ptr %8, align 8
  %35 = load ptr, ptr %8, align 8
  %36 = icmp ne ptr %35, null
  br i1 %36, label %39, label %37

37:                                               ; preds = %32
  %38 = load ptr, ptr %6, align 8
  call void (ptr, ...) @cmdarg_err(ptr noundef @.str.4, ptr noundef %38)
  call void @exit(i32 noundef 1) #10
  unreachable

39:                                               ; preds = %32
  call void @llvm.lifetime.start.p0(i64 8, ptr %10) #8
  store i64 1, ptr %10, align 8
  call void @llvm.lifetime.start.p0(i64 8, ptr %11) #8
  store i64 16, ptr %11, align 8
  call void @llvm.lifetime.start.p0(i64 8, ptr %12) #8
  %40 = load i64, ptr %11, align 8
  %41 = icmp eq i64 %40, 1
  br i1 %41, label %42, label %45

42:                                               ; preds = %39
  %43 = load i64, ptr %10, align 8
  %44 = call noalias ptr @g_malloc(i64 noundef %43) #11
  store ptr %44, ptr %12, align 8
  br label %66

45:                                               ; preds = %39
  %46 = load i64, ptr %10, align 8
  %47 = call i1 @llvm.is.constant.i64(i64 %46)
  br i1 %47, label %48, label %61

48:                                               ; preds = %45
  %49 = load i64, ptr %11, align 8
  %50 = icmp eq i64 %49, 0
  br i1 %50, label %56, label %51

51:                                               ; preds = %48
  %52 = load i64, ptr %10, align 8
  %53 = load i64, ptr %11, align 8
  %54 = udiv i64 -1, %53
  %55 = icmp ule i64 %52, %54
  br i1 %55, label %56, label %61

56:                                               ; preds = %51, %48
  %57 = load i64, ptr %10, align 8
  %58 = load i64, ptr %11, align 8
  %59 = mul i64 %57, %58
  %60 = call noalias ptr @g_malloc(i64 noundef %59) #11
  store ptr %60, ptr %12, align 8
  br label %65

61:                                               ; preds = %51, %45
  %62 = load i64, ptr %10, align 8
  %63 = load i64, ptr %11, align 8
  %64 = call noalias ptr @g_malloc_n(i64 noundef %62, i64 noundef %63) #12
  store ptr %64, ptr %12, align 8
  br label %65

65:                                               ; preds = %61, %56
  br label %66

66:                                               ; preds = %65, %42
  %67 = load ptr, ptr %12, align 8
  store ptr %67, ptr %13, align 8
  call void @llvm.lifetime.end.p0(i64 8, ptr %12) #8
  call void @llvm.lifetime.end.p0(i64 8, ptr %11) #8
  call void @llvm.lifetime.end.p0(i64 8, ptr %10) #8
  %68 = load ptr, ptr %13, align 8
  store ptr %68, ptr %5, align 8
  %69 = load ptr, ptr %8, align 8
  %70 = getelementptr inbounds nuw %struct._header_field_info, ptr %69, i32 0, i32 7
  %71 = load i32, ptr %70, align 8
  %72 = load ptr, ptr %5, align 8
  %73 = getelementptr inbounds nuw %struct._pci_t, ptr %72, i32 0, i32 1
  store i32 %71, ptr %73, align 8
  %74 = load ptr, ptr %6, align 8
  %75 = load ptr, ptr %7, align 8
  %76 = ptrtoint ptr %74 to i64
  %77 = ptrtoint ptr %75 to i64
  %78 = sub i64 %76, %77
  %79 = icmp sgt i64 %78, 1
  br i1 %79, label %80, label %99

80:                                               ; preds = %66
  %81 = load ptr, ptr %6, align 8
  %82 = load ptr, ptr %7, align 8
  %83 = ptrtoint ptr %81 to i64
  %84 = ptrtoint ptr %82 to i64
  %85 = sub i64 %83, %84
  %86 = call noalias ptr @g_malloc(i64 noundef %85) #11
  %87 = load ptr, ptr %5, align 8
  %88 = getelementptr inbounds nuw %struct._pci_t, ptr %87, i32 0, i32 0
  store ptr %86, ptr %88, align 8
  %89 = load ptr, ptr %5, align 8
  %90 = getelementptr inbounds nuw %struct._pci_t, ptr %89, i32 0, i32 0
  %91 = load ptr, ptr %90, align 8
  %92 = load ptr, ptr %7, align 8
  %93 = load ptr, ptr %6, align 8
  %94 = load ptr, ptr %7, align 8
  %95 = ptrtoint ptr %93 to i64
  %96 = ptrtoint ptr %94 to i64
  %97 = sub i64 %95, %96
  %98 = call i64 @g_strlcpy(ptr noundef %91, ptr noundef %92, i64 noundef %97)
  br label %102

99:                                               ; preds = %66
  %100 = load ptr, ptr %5, align 8
  %101 = getelementptr inbounds nuw %struct._pci_t, ptr %100, i32 0, i32 0
  store ptr null, ptr %101, align 8
  br label %102

102:                                              ; preds = %99, %80
  %103 = load ptr, ptr %5, align 8
  %104 = load ptr, ptr %5, align 8
  %105 = getelementptr inbounds nuw %struct._pci_t, ptr %104, i32 0, i32 0
  %106 = load ptr, ptr %105, align 8
  %107 = call ptr @register_tap_listener(ptr noundef @.str.5, ptr noundef %103, ptr noundef %106, i32 noundef 1, ptr noundef null, ptr noundef @protocolinfo_packet, ptr noundef null, ptr noundef null)
  store ptr %107, ptr %9, align 8
  %108 = load ptr, ptr %9, align 8
  %109 = icmp ne ptr %108, null
  br i1 %109, label %110, label %120

110:                                              ; preds = %102
  %111 = load ptr, ptr %9, align 8
  %112 = getelementptr inbounds nuw %struct._GString, ptr %111, i32 0, i32 0
  %113 = load ptr, ptr %112, align 8
  call void (ptr, ...) @cmdarg_err(ptr noundef @.str.6, ptr noundef %113)
  %114 = load ptr, ptr %9, align 8
  %115 = call ptr @g_string_free(ptr noundef %114, i32 noundef 1)
  %116 = load ptr, ptr %5, align 8
  %117 = getelementptr inbounds nuw %struct._pci_t, ptr %116, i32 0, i32 0
  %118 = load ptr, ptr %117, align 8
  call void @g_free(ptr noundef %118)
  %119 = load ptr, ptr %5, align 8
  call void @g_free(ptr noundef %119)
  call void @exit(i32 noundef 1) #10
  unreachable

120:                                              ; preds = %102
  call void @llvm.lifetime.end.p0(i64 8, ptr %9) #8
  call void @llvm.lifetime.end.p0(i64 8, ptr %8) #8
  call void @llvm.lifetime.end.p0(i64 8, ptr %7) #8
  call void @llvm.lifetime.end.p0(i64 8, ptr %6) #8
  call void @llvm.lifetime.end.p0(i64 8, ptr %5) #8
  ret void
}

; Function Attrs: nocallback nofree nosync nounwind willreturn memory(argmem: readwrite)
declare void @llvm.lifetime.start.p0(i64 immarg, ptr captures(none)) #2

; Function Attrs: nounwind null_pointer_is_valid willreturn memory(read)
declare i32 @strncmp(ptr noundef, ptr noundef, i64 noundef) #3

; Function Attrs: nounwind null_pointer_is_valid willreturn memory(read)
declare ptr @strchr(ptr noundef, i32 noundef) #3

; Function Attrs: null_pointer_is_valid
declare void @cmdarg_err(ptr noundef, ...) #1

; Function Attrs: noreturn nounwind null_pointer_is_valid
declare void @exit(i32 noundef) #4

; Function Attrs: null_pointer_is_valid
declare ptr @proto_registrar_get_byname(ptr noundef) #1

; Function Attrs: null_pointer_is_valid allocsize(0)
declare noalias ptr @g_malloc(i64 noundef) #5

; Function Attrs: convergent nocallback nofree nosync nounwind willreturn memory(none)
declare i1 @llvm.is.constant.i64(i64) #6

; Function Attrs: null_pointer_is_valid allocsize(0,1)
declare noalias ptr @g_malloc_n(i64 noundef, i64 noundef) #7

; Function Attrs: nocallback nofree nosync nounwind willreturn memory(argmem: readwrite)
declare void @llvm.lifetime.end.p0(i64 immarg, ptr captures(none)) #2

; Function Attrs: null_pointer_is_valid
declare i64 @g_strlcpy(ptr noundef, ptr noundef, i64 noundef) #1

; Function Attrs: null_pointer_is_valid
declare ptr @register_tap_listener(ptr noundef, ptr noundef, ptr noundef, i32 noundef, ptr noundef, ptr noundef, ptr noundef, ptr noundef) #1

; Function Attrs: null_pointer_is_valid sspstrong uwtable
define internal i32 @protocolinfo_packet(ptr noundef %0, ptr noundef %1, ptr noundef %2, ptr noundef %3, i32 noundef %4) #0 {
  %6 = alloca i32, align 4
  %7 = alloca ptr, align 8
  %8 = alloca ptr, align 8
  %9 = alloca ptr, align 8
  %10 = alloca ptr, align 8
  %11 = alloca i32, align 4
  %12 = alloca ptr, align 8
  %13 = alloca ptr, align 8
  %14 = alloca i32, align 4
  %15 = alloca ptr, align 8
  %16 = alloca i32, align 4
  store ptr %0, ptr %7, align 8
  store ptr %1, ptr %8, align 8
  store ptr %2, ptr %9, align 8
  store ptr %3, ptr %10, align 8
  store i32 %4, ptr %11, align 4
  call void @llvm.lifetime.start.p0(i64 8, ptr %12) #8
  %17 = load ptr, ptr %7, align 8
  store ptr %17, ptr %12, align 8
  call void @llvm.lifetime.start.p0(i64 8, ptr %13) #8
  call void @llvm.lifetime.start.p0(i64 4, ptr %14) #8
  call void @llvm.lifetime.start.p0(i64 8, ptr %15) #8
  %18 = load ptr, ptr %8, align 8
  %19 = getelementptr inbounds nuw %struct._packet_info, ptr %18, i32 0, i32 1
  %20 = load ptr, ptr %19, align 8
  %21 = call zeroext i1 @col_get_writable(ptr noundef %20, i32 noundef 25)
  br i1 %21, label %23, label %22

22:                                               ; preds = %5
  call void (ptr, ...) @cmdarg_err(ptr noundef @.str.7)
  call void @exit(i32 noundef 1) #10
  unreachable

23:                                               ; preds = %5
  %24 = load ptr, ptr %9, align 8
  %25 = getelementptr inbounds nuw %struct.epan_dissect, ptr %24, i32 0, i32 2
  %26 = load ptr, ptr %25, align 8
  %27 = load ptr, ptr %12, align 8
  %28 = getelementptr inbounds nuw %struct._pci_t, ptr %27, i32 0, i32 1
  %29 = load i32, ptr %28, align 8
  %30 = call ptr @proto_get_finfo_ptr_array(ptr noundef %26, i32 noundef %29)
  store ptr %30, ptr %13, align 8
  %31 = load ptr, ptr %13, align 8
  %32 = icmp ne ptr %31, null
  br i1 %32, label %34, label %33

33:                                               ; preds = %23
  store i32 0, ptr %6, align 4
  store i32 1, ptr %16, align 4
  br label %63

34:                                               ; preds = %23
  store i32 0, ptr %14, align 4
  br label %35

35:                                               ; preds = %59, %34
  %36 = load i32, ptr %14, align 4
  %37 = load ptr, ptr %13, align 8
  %38 = getelementptr inbounds nuw %struct._GPtrArray, ptr %37, i32 0, i32 1
  %39 = load i32, ptr %38, align 8
  %40 = icmp ult i32 %36, %39
  br i1 %40, label %41, label %62

41:                                               ; preds = %35
  %42 = load ptr, ptr %13, align 8
  %43 = getelementptr inbounds nuw %struct._GPtrArray, ptr %42, i32 0, i32 0
  %44 = load ptr, ptr %43, align 8
  %45 = load i32, ptr %14, align 4
  %46 = zext i32 %45 to i64
  %47 = getelementptr ptr, ptr %44, i64 %46
  %48 = load ptr, ptr %47, align 8
  %49 = call ptr @proto_construct_match_selected_string(ptr noundef %48, ptr noundef null)
  store ptr %49, ptr %15, align 8
  %50 = load ptr, ptr %15, align 8
  %51 = icmp ne ptr %50, null
  br i1 %51, label %52, label %58

52:                                               ; preds = %41
  %53 = load ptr, ptr %8, align 8
  %54 = getelementptr inbounds nuw %struct._packet_info, ptr %53, i32 0, i32 1
  %55 = load ptr, ptr %54, align 8
  %56 = load ptr, ptr %15, align 8
  call void (ptr, i32, ptr, ...) @col_append_fstr(ptr noundef %55, i32 noundef 25, ptr noundef @.str.8, ptr noundef %56)
  %57 = load ptr, ptr %15, align 8
  call void @wmem_free(ptr noundef null, ptr noundef %57)
  br label %58

58:                                               ; preds = %52, %41
  br label %59

59:                                               ; preds = %58
  %60 = load i32, ptr %14, align 4
  %61 = add i32 %60, 1
  store i32 %61, ptr %14, align 4
  br label %35, !llvm.loop !7

62:                                               ; preds = %35
  store i32 0, ptr %6, align 4
  store i32 1, ptr %16, align 4
  br label %63

63:                                               ; preds = %62, %33
  call void @llvm.lifetime.end.p0(i64 8, ptr %15) #8
  call void @llvm.lifetime.end.p0(i64 4, ptr %14) #8
  call void @llvm.lifetime.end.p0(i64 8, ptr %13) #8
  call void @llvm.lifetime.end.p0(i64 8, ptr %12) #8
  %64 = load i32, ptr %6, align 4
  ret i32 %64
}

; Function Attrs: null_pointer_is_valid
declare ptr @g_string_free(ptr noundef, i32 noundef) #1

; Function Attrs: null_pointer_is_valid
declare void @g_free(ptr noundef) #1

; Function Attrs: null_pointer_is_valid
declare zeroext i1 @col_get_writable(ptr noundef, i32 noundef) #1

; Function Attrs: null_pointer_is_valid
declare ptr @proto_get_finfo_ptr_array(ptr noundef, i32 noundef) #1

; Function Attrs: null_pointer_is_valid
declare ptr @proto_construct_match_selected_string(ptr noundef, ptr noundef) #1

; Function Attrs: null_pointer_is_valid
declare void @col_append_fstr(ptr noundef, i32 noundef, ptr noundef, ...) #1

; Function Attrs: null_pointer_is_valid
declare void @wmem_free(ptr noundef, ptr noundef) #1


!llvm.module.flags = !{!0, !1, !2, !3, !4, !5, !6}

!0 = !{i32 1, !"wchar_size", i32 4}
!1 = !{i32 8, !"cf-protection-return", i32 1}
!2 = !{i32 8, !"cf-protection-branch", i32 1}
!3 = !{i32 4, !"probe-stack", !"inline-asm"}
!4 = !{i32 8, !"PIC Level", i32 2}
!5 = !{i32 7, !"PIE Level", i32 2}
!6 = !{i32 7, !"uwtable", i32 2}
!7 = distinct !{!7, !8}
!8 = !{!"llvm.loop.mustprogress"}
